target datalayout = "e-m:e-p270:32:32-p271:32:32-p272:64:64-i64:64-i128:128-f80:128-n8:16:32:64-S128"
target triple = "x86_64-pc-linux-gnu"

%struct.jpeg_compress_struct = type { ptr, ptr, ptr, ptr, i32, i32, ptr, i32, i32, i32, i32, double, i32, i32, i32, ptr, [4 x ptr], [4 x ptr], [4 x ptr], [16 x i8], [16 x i8], [16 x i8], i32, ptr, i32, i32, i32, i32, i32, i32, i32, i32, i32, i8, i8, i8, i16, i16, i32, i32, i32, i32, i32, i32, i32, [4 x ptr], i32, i32, i32, [10 x i32], i32, i32, i32, i32, ptr, ptr, ptr, ptr, ptr, ptr, ptr, ptr, ptr, ptr, i32 }
%struct.JQUANT_TBL = type { [64 x i16], i32 }
%struct.JHUFF_TBL = type { [17 x i8], [256 x i8], i32 }

; Function Attrs: nounwind uwtable
define void @jpeg_suppress_tables(ptr noundef %0, i32 noundef %1) #0 {
  %3 = alloca ptr, align 8
  %4 = alloca i32, align 4
  %5 = alloca i32, align 4
  %6 = alloca ptr, align 8
  %7 = alloca ptr, align 8
  store ptr %0, ptr %3, align 8, !tbaa !3
  store i32 %1, ptr %4, align 4, !tbaa !8
  call void @llvm.lifetime.start.p0(i64 4, ptr %5) #4
  call void @llvm.lifetime.start.p0(i64 8, ptr %6) #4
  call void @llvm.lifetime.start.p0(i64 8, ptr %7) #4
  store i32 0, ptr %5, align 4, !tbaa !8
  br label %8

8:                                                ; preds = %24, %2
  %9 = load i32, ptr %5, align 4, !tbaa !8
  %10 = icmp slt i32 %9, 4
  br i1 %10, label %11, label %27

11:                                               ; preds = %8
  %12 = load ptr, ptr %3, align 8, !tbaa !3
  %13 = getelementptr inbounds nuw %struct.jpeg_compress_struct, ptr %12, i32 0, i32 16
  %14 = load i32, ptr %5, align 4, !tbaa !8
  %15 = sext i32 %14 to i64
  %16 = getelementptr inbounds [4 x ptr], ptr %13, i64 0, i64 %15
  %17 = load ptr, ptr %16, align 8, !tbaa !37
  store ptr %17, ptr %6, align 8, !tbaa !37
  %18 = icmp ne ptr %17, null
  br i1 %18, label %19, label %23

19:                                               ; preds = %11
  %20 = load i32, ptr %4, align 4, !tbaa !8
  %21 = load ptr, ptr %6, align 8, !tbaa !37
  %22 = getelementptr inbounds nuw %struct.JQUANT_TBL, ptr %21, i32 0, i32 1
  store i32 %20, ptr %22, align 4, !tbaa !52
  br label %23

23:                                               ; preds = %19, %11
  br label %24

24:                                               ; preds = %23
  %25 = load i32, ptr %5, align 4, !tbaa !8
  %26 = add nsw i32 %25, 1
  store i32 %26, ptr %5, align 4, !tbaa !8
  br label %8, !llvm.loop !54

27:                                               ; preds = %8
  store i32 0, ptr %5, align 4, !tbaa !8
  br label %28

28:                                               ; preds = %56, %27
  %29 = load i32, ptr %5, align 4, !tbaa !8
  %30 = icmp slt i32 %29, 4
  br i1 %30, label %31, label %59

31:                                               ; preds = %28
  %32 = load ptr, ptr %3, align 8, !tbaa !3
  %33 = getelementptr inbounds nuw %struct.jpeg_compress_struct, ptr %32, i32 0, i32 17
  %34 = load i32, ptr %5, align 4, !tbaa !8
  %35 = sext i32 %34 to i64
  %36 = getelementptr inbounds [4 x ptr], ptr %33, i64 0, i64 %35
  %37 = load ptr, ptr %36, align 8, !tbaa !37
  store ptr %37, ptr %7, align 8, !tbaa !37
  %38 = icmp ne ptr %37, null
  br i1 %38, label %39, label %43

39:                                               ; preds = %31
  %40 = load i32, ptr %4, align 4, !tbaa !8
  %41 = load ptr, ptr %7, align 8, !tbaa !37
  %42 = getelementptr inbounds nuw %struct.JHUFF_TBL, ptr %41, i32 0, i32 2
  store i32 %40, ptr %42, align 4, !tbaa !55
  br label %43

43:                                               ; preds = %39, %31
  %44 = load ptr, ptr %3, align 8, !tbaa !3
  %45 = getelementptr inbounds nuw %struct.jpeg_compress_struct, ptr %44, i32 0, i32 18
  %46 = load i32, ptr %5, align 4, !tbaa !8
  %47 = sext i32 %46 to i64
  %48 = getelementptr inbounds [4 x ptr], ptr %45, i64 0, i64 %47
  %49 = load ptr, ptr %48, align 8, !tbaa !37
  store ptr %49, ptr %7, align 8, !tbaa !37
  %50 = icmp ne ptr %49, null
  br i1 %50, label %51, label %55

51:                                               ; preds = %43
  %52 = load i32, ptr %4, align 4, !tbaa !8
  %53 = load ptr, ptr %7, align 8, !tbaa !37
  %54 = getelementptr inbounds nuw %struct.JHUFF_TBL, ptr %53, i32 0, i32 2
  store i32 %52, ptr %54, align 4, !tbaa !55
  br label %55

55:                                               ; preds = %51, %43
  br label %56

56:                                               ; preds = %55
  %57 = load i32, ptr %5, align 4, !tbaa !8
  %58 = add nsw i32 %57, 1
  store i32 %58, ptr %5, align 4, !tbaa !8
  br label %28, !llvm.loop !57

59:                                               ; preds = %28
  call void @llvm.lifetime.end.p0(i64 8, ptr %7) #4
  call void @llvm.lifetime.end.p0(i64 8, ptr %6) #4
  call void @llvm.lifetime.end.p0(i64 4, ptr %5) #4
  ret void
}